target datalayout = "e-m:e-p270:32:32-p271:32:32-p272:64:64-i64:64-i128:128-f80:128-n8:16:32:64-S128"
target triple = "x86_64-pc-linux-gnu"

%struct.__va_list_tag = type { i32, i32, ptr, ptr }

@hf_mswsp_cingroupsortaggregsets_count = internal global i32 0, align 4
@ett_CInGroupSortAggregSets = internal global i32 0, align 4
@.str.1323 = private unnamed_addr constant [13 x i8] c"SortSets[%u]\00", align 1

; Function Attrs: null_pointer_is_valid sspstrong uwtable
define internal i32 @parse_CInGroupSortAggregSets(ptr noundef %0, ptr noundef %1, i32 noundef %2, ptr noundef %3, ptr noundef %4, ptr noundef %5, ...) #0 {
  %7 = alloca ptr, align 8
  %8 = alloca ptr, align 8
  %9 = alloca i32, align 4
  %10 = alloca ptr, align 8
  %11 = alloca ptr, align 8
  %12 = alloca ptr, align 8
  %13 = alloca i32, align 4
  %14 = alloca i32, align 4
  %15 = alloca ptr, align 8
  %16 = alloca ptr, align 8
  %17 = alloca ptr, align 8
  %18 = alloca [1 x %struct.__va_list_tag], align 16
  store ptr %0, ptr %7, align 8
  store ptr %1, ptr %8, align 8
  store i32 %2, ptr %9, align 4
  store ptr %3, ptr %10, align 8
  store ptr %4, ptr %11, align 8
  store ptr %5, ptr %12, align 8
  call void @llvm.lifetime.start.p0(i64 4, ptr %13) #11
  call void @llvm.lifetime.start.p0(i64 4, ptr %14) #11
  call void @llvm.lifetime.start.p0(i64 8, ptr %15) #11
  call void @llvm.lifetime.start.p0(i64 8, ptr %16) #11
  call void @llvm.lifetime.start.p0(i64 8, ptr %17) #11
  call void @llvm.lifetime.start.p0(i64 24, ptr %18) #11
  %19 = getelementptr inbounds [1 x %struct.__va_list_tag], ptr %18, i64 0, i64 0
  call void @llvm.va_start.p0(ptr %19)
  %20 = call ptr @wmem_packet_scope()
  %21 = load ptr, ptr %12, align 8
  %22 = getelementptr inbounds [1 x %struct.__va_list_tag], ptr %18, i64 0, i64 0
  %23 = call noalias ptr @wmem_strdup_vprintf(ptr noundef %20, ptr noundef %21, ptr noundef %22)
  store ptr %23, ptr %17, align 8
  %24 = getelementptr inbounds [1 x %struct.__va_list_tag], ptr %18, i64 0, i64 0
  call void @llvm.va_end.p0(ptr %24)
  %25 = load ptr, ptr %10, align 8
  %26 = load ptr, ptr %7, align 8
  %27 = load i32, ptr %9, align 4
  %28 = load i32, ptr @ett_CInGroupSortAggregSets, align 4
  %29 = load ptr, ptr %17, align 8
  %30 = call ptr @proto_tree_add_subtree(ptr noundef %25, ptr noundef %26, i32 noundef %27, i32 noundef 0, i32 noundef %28, ptr noundef %15, ptr noundef %29)
  store ptr %30, ptr %16, align 8
  %31 = load ptr, ptr %7, align 8
  %32 = load i32, ptr %9, align 4
  %33 = call i32 @tvb_get_letohl(ptr noundef %31, i32 noundef %32)
  store i32 %33, ptr %13, align 4
  %34 = load ptr, ptr %16, align 8
  %35 = load i32, ptr @hf_mswsp_cingroupsortaggregsets_count, align 4
  %36 = load ptr, ptr %7, align 8
  %37 = load i32, ptr %9, align 4
  %38 = load i32, ptr %13, align 4
  %39 = call ptr @proto_tree_add_uint(ptr noundef %34, i32 noundef %35, ptr noundef %36, i32 noundef %37, i32 noundef 4, i32 noundef %38)
  %40 = load i32, ptr %9, align 4
  %41 = add i32 %40, 4
  store i32 %41, ptr %9, align 4
  store i32 0, ptr %14, align 4
  br label %42

42:                                               ; preds = %54, %6
  %43 = load i32, ptr %14, align 4
  %44 = load i32, ptr %13, align 4
  %45 = icmp ult i32 %43, %44
  br i1 %45, label %46, label %57

46:                                               ; preds = %42
  %47 = load ptr, ptr %7, align 8
  %48 = load ptr, ptr %8, align 8
  %49 = load i32, ptr %9, align 4
  %50 = load ptr, ptr %16, align 8
  %51 = load ptr, ptr %11, align 8
  %52 = load i32, ptr %14, align 4
  %53 = call i32 (ptr, ptr, i32, ptr, ptr, ptr, ...) @parse_CInGroupSortAggregSet(ptr noundef %47, ptr noundef %48, i32 noundef %49, ptr noundef %50, ptr noundef %51, ptr noundef @.str.1323, i32 noundef %52)
  store i32 %53, ptr %9, align 4
  br label %54

54:                                               ; preds = %46
  %55 = load i32, ptr %14, align 4
  %56 = add i32 %55, 1
  store i32 %56, ptr %14, align 4
  br label %42, !llvm.loop !22

57:                                               ; preds = %42
  %58 = load ptr, ptr %15, align 8
  %59 = load ptr, ptr %7, align 8
  %60 = load i32, ptr %9, align 4
  call void @proto_item_set_end(ptr noundef %58, ptr noundef %59, i32 noundef %60)
  %61 = load i32, ptr %9, align 4
  call void @llvm.lifetime.end.p0(i64 24, ptr %18) #11
  call void @llvm.lifetime.end.p0(i64 8, ptr %17) #11
  call void @llvm.lifetime.end.p0(i64 8, ptr %16) #11
  call void @llvm.lifetime.end.p0(i64 8, ptr %15) #11
  call void @llvm.lifetime.end.p0(i64 4, ptr %14) #11
  call void @llvm.lifetime.end.p0(i64 4, ptr %13) #11
  ret i32 %61
}