; Function Attrs: null_pointer_is_valid sspstrong uwtable
define internal noundef i32 @parse_CInGroupSortAggregSets(ptr noundef %0, ptr noundef %1, i32 noundef %2, ptr noundef %3, ptr noundef %4, ptr noundef %5, ...) unnamed_addr #0 {
  %7 = alloca ptr, align 8
  %8 = alloca [1 x %struct.__va_list_tag], align 16
  call void @llvm.lifetime.start.p0(i64 8, ptr nonnull %7) #11
  call void @llvm.lifetime.start.p0(i64 24, ptr nonnull %8) #11
  call void @llvm.va_start.p0(ptr nonnull %8)
  %9 = call ptr @wmem_packet_scope()
  %10 = call noalias ptr @wmem_strdup_vprintf(ptr noundef %9, ptr noundef %5, ptr noundef nonnull %8)
  call void @llvm.va_end.p0(ptr nonnull %8)
  %11 = load i32, ptr @ett_CInGroupSortAggregSets, align 4
  %12 = call ptr @proto_tree_add_subtree(ptr noundef %3, ptr noundef %0, i32 noundef %2, i32 noundef 0, i32 noundef %11, ptr noundef nonnull %7, ptr noundef %10)
  %13 = call i32 @tvb_get_letohl(ptr noundef %0, i32 noundef %2)
  %14 = load i32, ptr @hf_mswsp_cingroupsortaggregsets_count, align 4
  %15 = call ptr @proto_tree_add_uint(ptr noundef %12, i32 noundef %14, ptr noundef %0, i32 noundef %2, i32 noundef 4, i32 noundef %13)
  %16 = add i32 %2, 4
  %.not = icmp eq i32 %13, 0
  br i1 %.not, label %._crit_edge, label %.lr.ph

.lr.ph:                                           ; preds = %6, %.lr.ph
  %.025 = phi i32 [ %17, %.lr.ph ], [ %16, %6 ]
  %.02324 = phi i32 [ %18, %.lr.ph ], [ 0, %6 ]
  %17 = call i32 (ptr, ptr, i32, ptr, ptr, ptr, ...) @parse_CInGroupSortAggregSet(ptr noundef %0, ptr noundef %1, i32 noundef %.025, ptr noundef %12, ptr noundef %4, ptr nonnull poison, i32 noundef %.02324)
  %18 = add nuw i32 %.02324, 1
  %exitcond.not = icmp eq i32 %18, %13
  br i1 %exitcond.not, label %._crit_edge, label %.lr.ph, !llvm.loop !23

._crit_edge:                                      ; preds = %.lr.ph, %6
  %.0.lcssa = phi i32 [ %16, %6 ], [ %17, %.lr.ph ]
  %19 = load ptr, ptr %7, align 8
  call void @proto_item_set_end(ptr noundef %19, ptr noundef %0, i32 noundef %.0.lcssa)
  call void @llvm.lifetime.end.p0(i64 24, ptr nonnull %8) #11
  call void @llvm.lifetime.end.p0(i64 8, ptr nonnull %7) #11
  ret i32 %.0.lcssa
}